target datalayout = "e-m:e-p270:32:32-p271:32:32-p272:64:64-i64:64-i128:128-f80:128-n8:16:32:64-S128"
target triple = "x86_64-pc-linux-gnu"

%"class.boost::atomics::atomic_ref" = type { %"class.boost::atomics::detail::base_atomic_ref" }
%"class.boost::atomics::detail::base_atomic_ref" = type { %"class.boost::atomics::detail::base_atomic_ref_common" }
%"class.boost::atomics::detail::base_atomic_ref_common" = type { ptr }
%"class.std::locale" = type { ptr }

@_ZN12_GLOBAL__N_113g_path_localeE = internal global ptr null, align 8
@.str = private unnamed_addr constant [1 x i8] zeroinitializer, align 1

; Function Attrs: alwaysinline mustprogress nounwind uwtable
define linkonce_odr hidden noundef ptr @_ZN5boost7atomics6detail17bitwise_cast_implIPSt6localeLm8EmEET_RKT1_St17integral_constantIbLb1EE(ptr noundef nonnull align 8 dereferenceable(8) %0) #13 comdat {
  %2 = alloca ptr, align 8
  store ptr %0, ptr %2, align 8, !tbaa !3
  %3 = load ptr, ptr %2, align 8, !tbaa !3
  %4 = load ptr, ptr %3, align 8, !tbaa !9
  ret ptr %4
}

; Function Attrs: alwaysinline mustprogress nounwind uwtable
define linkonce_odr hidden noundef i64 @_ZN5boost7atomics6detail17bitwise_cast_implImLm8EPSt6localeEET_RKT1_St17integral_constantIbLb1EE(ptr noundef nonnull align 8 dereferenceable(8) %0) #13 comdat {
  %2 = alloca ptr, align 8
  store ptr %0, ptr %2, align 8, !tbaa !3
  %3 = load ptr, ptr %2, align 8, !tbaa !3
  %4 = load i64, ptr %3, align 8, !tbaa !9
  ret i64 %4
}

; Function Attrs: alwaysinline mustprogress nounwind uwtable
define linkonce_odr hidden noundef ptr @_ZN5boost7atomics6detail9addressofIPSt6localeEEPT_RS5_(ptr noundef nonnull align 8 dereferenceable(8) %0) #13 comdat {
  %2 = alloca ptr, align 8
  store ptr %0, ptr %2, align 8, !tbaa !3
  %3 = load ptr, ptr %2, align 8, !tbaa !3
  ret ptr %3
}

; Function Attrs: alwaysinline mustprogress nounwind uwtable
define linkonce_odr hidden noundef ptr @_ZN5boost7atomics6detail12bitwise_castIPSt6localeLm8EmEET_RKT1_(ptr noundef nonnull align 8 dereferenceable(8) %0) #13 comdat {
  %2 = alloca ptr, align 8
  store ptr %0, ptr %2, align 8, !tbaa !3
  %3 = load ptr, ptr %2, align 8, !tbaa !3
  %4 = call noundef ptr @_ZN5boost7atomics6detail17bitwise_cast_implIPSt6localeLm8EmEET_RKT1_St17integral_constantIbLb1EE(ptr noundef nonnull align 8 dereferenceable(8) %3) #11
  ret ptr %4
}

; Function Attrs: alwaysinline mustprogress nounwind uwtable
define linkonce_odr hidden noundef i32 @_ZN5boost7atomics6detail27convert_memory_order_to_gccENS_12memory_orderE(i32 noundef %0) #13 comdat {
  %2 = alloca i32, align 4
  store i32 %0, ptr %2, align 4, !tbaa !56
  %3 = load i32, ptr %2, align 4, !tbaa !56
  %4 = icmp eq i32 %3, 0
  br i1 %4, label %5, label %6

5:                                                ; preds = %1
  br label %28

6:                                                ; preds = %1
  %7 = load i32, ptr %2, align 4, !tbaa !56
  %8 = icmp eq i32 %7, 1
  br i1 %8, label %9, label %10

9:                                                ; preds = %6
  br label %26

10:                                               ; preds = %6
  %11 = load i32, ptr %2, align 4, !tbaa !56
  %12 = icmp eq i32 %11, 2
  br i1 %12, label %13, label %14

13:                                               ; preds = %10
  br label %24

14:                                               ; preds = %10
  %15 = load i32, ptr %2, align 4, !tbaa !56
  %16 = icmp eq i32 %15, 4
  br i1 %16, label %17, label %18

17:                                               ; preds = %14
  br label %22

18:                                               ; preds = %14
  %19 = load i32, ptr %2, align 4, !tbaa !56
  %20 = icmp eq i32 %19, 6
  %21 = select i1 %20, i32 4, i32 5
  br label %22

22:                                               ; preds = %18, %17
  %23 = phi i32 [ 3, %17 ], [ %21, %18 ]
  br label %24

24:                                               ; preds = %22, %13
  %25 = phi i32 [ 2, %13 ], [ %23, %22 ]
  br label %26

26:                                               ; preds = %24, %9
  %27 = phi i32 [ 1, %9 ], [ %25, %24 ]
  br label %28

28:                                               ; preds = %26, %5
  %29 = phi i32 [ 0, %5 ], [ %27, %26 ]
  ret i32 %29
}

; Function Attrs: alwaysinline mustprogress nounwind uwtable
define linkonce_odr hidden noundef i64 @_ZN5boost7atomics6detail12bitwise_castImLm8EPSt6localeEET_RKT1_(ptr noundef nonnull align 8 dereferenceable(8) %0) #13 comdat {
  %2 = alloca ptr, align 8
  store ptr %0, ptr %2, align 8, !tbaa !3
  %3 = load ptr, ptr %2, align 8, !tbaa !3
  %4 = call noundef i64 @_ZN5boost7atomics6detail17bitwise_cast_implImLm8EPSt6localeEET_RKT1_St17integral_constantIbLb1EE(ptr noundef nonnull align 8 dereferenceable(8) %3) #11
  ret i64 %4
}

; Function Attrs: alwaysinline mustprogress nounwind uwtable
define linkonce_odr hidden void @_ZN5boost7atomics6detail22base_atomic_ref_commonIPSt6localeLb0ELb0EEC2ERS4_(ptr noundef nonnull align 8 dereferenceable(8) %0, ptr noundef nonnull align 8 dereferenceable(8) %1) unnamed_addr #13 comdat align 2 {
  %3 = alloca ptr, align 8
  %4 = alloca ptr, align 8
  store ptr %0, ptr %3, align 8, !tbaa !3
  store ptr %1, ptr %4, align 8, !tbaa !3
  %5 = load ptr, ptr %3, align 8
  %6 = getelementptr inbounds nuw %"class.boost::atomics::detail::base_atomic_ref_common", ptr %5, i32 0, i32 0
  %7 = load ptr, ptr %4, align 8, !tbaa !3
  %8 = call noundef ptr @_ZN5boost7atomics6detail9addressofIPSt6localeEEPT_RS5_(ptr noundef nonnull align 8 dereferenceable(8) %7) #11
  store ptr %8, ptr %6, align 8, !tbaa !58
  ret void
}

; Function Attrs: alwaysinline mustprogress nounwind uwtable
define linkonce_odr hidden noundef ptr @_ZN5boost7atomics6detail12bitwise_castIPSt6localemEET_RKT0_(ptr noundef nonnull align 8 dereferenceable(8) %0) #13 comdat {
  %2 = alloca ptr, align 8
  store ptr %0, ptr %2, align 8, !tbaa !3
  %3 = load ptr, ptr %2, align 8, !tbaa !3
  %4 = call noundef ptr @_ZN5boost7atomics6detail12bitwise_castIPSt6localeLm8EmEET_RKT1_(ptr noundef nonnull align 8 dereferenceable(8) %3) #11
  ret ptr %4
}

; Function Attrs: alwaysinline mustprogress nounwind uwtable
define linkonce_odr hidden noundef i64 @_ZN5boost7atomics6detail26core_operations_gcc_atomicILm8ELb0ELb0EE8exchangeERVmmNS_12memory_orderE(ptr noundef nonnull align 8 dereferenceable(8) %0, i64 noundef %1, i32 noundef %2) #13 comdat align 2 {
  %4 = alloca ptr, align 8
  %5 = alloca i64, align 8
  %6 = alloca i32, align 4
  %7 = alloca i64, align 8
  %8 = alloca i64, align 8
  store ptr %0, ptr %4, align 8, !tbaa !3
  store i64 %1, ptr %5, align 8, !tbaa !9
  store i32 %2, ptr %6, align 4, !tbaa !56
  %9 = load ptr, ptr %4, align 8, !tbaa !3
  %10 = load i32, ptr %6, align 4, !tbaa !56
  %11 = call noundef i32 @_ZN5boost7atomics6detail27convert_memory_order_to_gccENS_12memory_orderE(i32 noundef %10) #11
  %12 = load i64, ptr %5, align 8, !tbaa !9
  store i64 %12, ptr %7, align 8, !tbaa !9
  switch i32 %11, label %13 [
    i32 1, label %16
    i32 2, label %16
    i32 3, label %19
    i32 4, label %22
    i32 5, label %25
  ]

13:                                               ; preds = %3
  %14 = load i64, ptr %7, align 8
  %15 = atomicrmw volatile xchg ptr %9, i64 %14 monotonic, align 8
  store i64 %15, ptr %8, align 8
  br label %28

16:                                               ; preds = %3, %3
  %17 = load i64, ptr %7, align 8
  %18 = atomicrmw volatile xchg ptr %9, i64 %17 acquire, align 8
  store i64 %18, ptr %8, align 8
  br label %28

19:                                               ; preds = %3
  %20 = load i64, ptr %7, align 8
  %21 = atomicrmw volatile xchg ptr %9, i64 %20 release, align 8
  store i64 %21, ptr %8, align 8
  br label %28

22:                                               ; preds = %3
  %23 = load i64, ptr %7, align 8
  %24 = atomicrmw volatile xchg ptr %9, i64 %23 acq_rel, align 8
  store i64 %24, ptr %8, align 8
  br label %28

25:                                               ; preds = %3
  %26 = load i64, ptr %7, align 8
  %27 = atomicrmw volatile xchg ptr %9, i64 %26 seq_cst, align 8
  store i64 %27, ptr %8, align 8
  br label %28

28:                                               ; preds = %25, %22, %19, %16, %13
  %29 = load i64, ptr %8, align 8, !tbaa !9
  ret i64 %29
}

; Function Attrs: alwaysinline mustprogress nounwind uwtable
define linkonce_odr hidden noundef i64 @_ZN5boost7atomics6detail12bitwise_castImPSt6localeEET_RKT0_(ptr noundef nonnull align 8 dereferenceable(8) %0) #13 comdat {
  %2 = alloca ptr, align 8
  store ptr %0, ptr %2, align 8, !tbaa !3
  %3 = load ptr, ptr %2, align 8, !tbaa !3
  %4 = call noundef i64 @_ZN5boost7atomics6detail12bitwise_castImLm8EPSt6localeEET_RKT1_(ptr noundef nonnull align 8 dereferenceable(8) %3) #11
  ret i64 %4
}

; Function Attrs: alwaysinline mustprogress nounwind uwtable
define linkonce_odr hidden noundef nonnull align 8 dereferenceable(8) ptr @_ZNK5boost7atomics6detail22base_atomic_ref_commonIPSt6localeLb0ELb0EE7storageEv(ptr noundef nonnull align 8 dereferenceable(8) %0) #13 comdat align 2 {
  %2 = alloca ptr, align 8
  store ptr %0, ptr %2, align 8, !tbaa !3
  %3 = load ptr, ptr %2, align 8
  %4 = getelementptr inbounds nuw %"class.boost::atomics::detail::base_atomic_ref_common", ptr %3, i32 0, i32 0
  %5 = load ptr, ptr %4, align 8, !tbaa !58
  ret ptr %5
}

; Function Attrs: alwaysinline mustprogress nounwind uwtable
define linkonce_odr hidden void @_ZN5boost7atomics6detail15base_atomic_refIPSt6localePvLb0EEC2ERS4_(ptr noundef nonnull align 8 dereferenceable(8) %0, ptr noundef nonnull align 8 dereferenceable(8) %1) unnamed_addr #13 comdat align 2 {
  %3 = alloca ptr, align 8
  %4 = alloca ptr, align 8
  store ptr %0, ptr %3, align 8, !tbaa !3
  store ptr %1, ptr %4, align 8, !tbaa !3
  %5 = load ptr, ptr %3, align 8
  %6 = load ptr, ptr %4, align 8, !tbaa !3
  call void @_ZN5boost7atomics6detail22base_atomic_ref_commonIPSt6localeLb0ELb0EEC2ERS4_(ptr noundef nonnull align 8 dereferenceable(8) %5, ptr noundef nonnull align 8 dereferenceable(8) %6) #11
  ret void
}

; Function Attrs: inlinehint mustprogress nounwind uwtable
define internal void @_ZN12_GLOBAL__N_128schedule_path_locale_cleanupEv() #4 {
  ret void
}

; Function Attrs: alwaysinline mustprogress nounwind uwtable
define linkonce_odr hidden noundef ptr @_ZNK5boost7atomics6detail15base_atomic_refIPSt6localePvLb0EE8exchangeES4_NS_12memory_orderE(ptr noundef nonnull align 8 dereferenceable(8) %0, ptr noundef %1, i32 noundef %2) #13 comdat align 2 {
  %4 = alloca ptr, align 8
  %5 = alloca ptr, align 8
  %6 = alloca i32, align 4
  %7 = alloca i64, align 8
  store ptr %0, ptr %4, align 8, !tbaa !3
  store ptr %1, ptr %5, align 8, !tbaa !3
  store i32 %2, ptr %6, align 4, !tbaa !56
  %8 = load ptr, ptr %4, align 8
  call void @llvm.lifetime.start.p0(i64 8, ptr %7) #11
  %9 = call noundef nonnull align 8 dereferenceable(8) ptr @_ZNK5boost7atomics6detail22base_atomic_ref_commonIPSt6localeLb0ELb0EE7storageEv(ptr noundef nonnull align 8 dereferenceable(8) %8) #11
  %10 = call noundef i64 @_ZN5boost7atomics6detail12bitwise_castImPSt6localeEET_RKT0_(ptr noundef nonnull align 8 dereferenceable(8) %5) #11
  %11 = load i32, ptr %6, align 4, !tbaa !56
  %12 = call noundef i64 @_ZN5boost7atomics6detail26core_operations_gcc_atomicILm8ELb0ELb0EE8exchangeERVmmNS_12memory_orderE(ptr noundef nonnull align 8 dereferenceable(8) %9, i64 noundef %10, i32 noundef %11) #11
  store i64 %12, ptr %7, align 8, !tbaa !9
  %13 = call noundef ptr @_ZN5boost7atomics6detail12bitwise_castIPSt6localemEET_RKT0_(ptr noundef nonnull align 8 dereferenceable(8) %7) #11
  call void @llvm.lifetime.end.p0(i64 8, ptr %7) #11
  ret ptr %13
}

; Function Attrs: alwaysinline mustprogress nounwind uwtable
define linkonce_odr hidden void @_ZN5boost7atomics10atomic_refIPSt6localeEC2ERS3_(ptr noundef nonnull align 8 dereferenceable(8) %0, ptr noundef nonnull align 8 dereferenceable(8) %1) unnamed_addr #13 comdat align 2 {
  %3 = alloca ptr, align 8
  %4 = alloca ptr, align 8
  store ptr %0, ptr %3, align 8, !tbaa !3
  store ptr %1, ptr %4, align 8, !tbaa !3
  %5 = load ptr, ptr %3, align 8
  %6 = load ptr, ptr %4, align 8, !tbaa !3
  call void @_ZN5boost7atomics6detail15base_atomic_refIPSt6localePvLb0EEC2ERS4_(ptr noundef nonnull align 8 dereferenceable(8) %5, ptr noundef nonnull align 8 dereferenceable(8) %6) #11
  ret void
}

; Function Attrs: mustprogress uwtable
define internal void @_ZN12_GLOBAL__N_114default_localeEv(ptr dead_on_unwind noalias writable sret(%"class.std::locale") align 8 %0) #3 {
  %2 = alloca ptr, align 8
  store ptr %0, ptr %2, align 8
  call void @_ZNSt6localeC1EPKc(ptr noundef nonnull align 8 dereferenceable(8) %0, ptr noundef @.str)
  ret void
}

; Function Attrs: inlinehint mustprogress uwtable
define internal noundef ptr @_ZN12_GLOBAL__N_119replace_path_localeERKSt6locale(ptr noundef nonnull align 8 dereferenceable(8) %0) #8 {
  %2 = alloca ptr, align 8
  %3 = alloca ptr, align 8
  %4 = alloca ptr, align 8
  %5 = alloca %"class.boost::atomics::atomic_ref", align 8
  store ptr %0, ptr %2, align 8, !tbaa !3
  call void @llvm.lifetime.start.p0(i64 8, ptr %3) #11
  %6 = call noalias noundef nonnull ptr @_Znwm(i64 noundef 8) #21
  %7 = load ptr, ptr %2, align 8, !tbaa !3
  call void @_ZNSt6localeC1ERKS_(ptr noundef nonnull align 8 dereferenceable(8) %6, ptr noundef nonnull align 8 dereferenceable(8) %7) #11
  store ptr %6, ptr %3, align 8, !tbaa !3
  call void @llvm.lifetime.start.p0(i64 8, ptr %4) #11
  call void @llvm.lifetime.start.p0(i64 8, ptr %5) #11
  call void @_ZN5boost7atomics10atomic_refIPSt6localeEC2ERS3_(ptr noundef nonnull align 8 dereferenceable(8) %5, ptr noundef nonnull align 8 dereferenceable(8) @_ZN12_GLOBAL__N_113g_path_localeE) #11
  %8 = load ptr, ptr %3, align 8, !tbaa !3
  %9 = call noundef ptr @_ZNK5boost7atomics6detail15base_atomic_refIPSt6localePvLb0EE8exchangeES4_NS_12memory_orderE(ptr noundef nonnull align 8 dereferenceable(8) %5, ptr noundef %8, i32 noundef 6) #11
  call void @llvm.lifetime.end.p0(i64 8, ptr %5) #11
  store ptr %9, ptr %4, align 8, !tbaa !3
  %10 = load ptr, ptr %4, align 8, !tbaa !3
  %11 = icmp ne ptr %10, null
  br i1 %11, label %13, label %12

12:                                               ; preds = %1
  call void @_ZN12_GLOBAL__N_128schedule_path_locale_cleanupEv() #11
  br label %13

13:                                               ; preds = %12, %1
  %14 = load ptr, ptr %4, align 8, !tbaa !3
  call void @llvm.lifetime.end.p0(i64 8, ptr %4) #11
  call void @llvm.lifetime.end.p0(i64 8, ptr %3) #11
  ret ptr %14
}

; Function Attrs: mustprogress uwtable
define void @_ZN5boost10filesystem4path5imbueERKSt6locale(ptr dead_on_unwind noalias writable sret(%"class.std::locale") align 8 %0, ptr noundef nonnull align 8 dereferenceable(8) %1) #3 align 2 {
  %3 = alloca ptr, align 8
  %4 = alloca ptr, align 8
  %5 = alloca ptr, align 8
  %6 = alloca i1, align 1
  %7 = alloca i32, align 4
  store ptr %0, ptr %3, align 8
  store ptr %1, ptr %4, align 8, !tbaa !3
  call void @llvm.lifetime.start.p0(i64 8, ptr %5) #11
  %8 = load ptr, ptr %4, align 8, !tbaa !3
  %9 = call noundef ptr @_ZN12_GLOBAL__N_119replace_path_localeERKSt6locale(ptr noundef nonnull align 8 dereferenceable(8) %8)
  store ptr %9, ptr %5, align 8, !tbaa !3
  %10 = load ptr, ptr %5, align 8, !tbaa !3
  %11 = icmp ne ptr %10, null
  %12 = zext i1 %11 to i64
  %13 = call i64 @llvm.expect.i64(i64 %12, i64 1)
  %14 = icmp ne i64 %13, 0
  br i1 %14, label %15, label %24

15:                                               ; preds = %2
  store i1 false, ptr %6, align 1
  %16 = load ptr, ptr %5, align 8, !tbaa !3
  call void @_ZNSt6localeC1ERKS_(ptr noundef nonnull align 8 dereferenceable(8) %0, ptr noundef nonnull align 8 dereferenceable(8) %16) #11
  %17 = load ptr, ptr %5, align 8, !tbaa !3
  %18 = icmp eq ptr %17, null
  br i1 %18, label %20, label %19

19:                                               ; preds = %15
  call void @_ZNSt6localeD1Ev(ptr noundef nonnull align 8 dereferenceable(8) %17) #11
  call void @_ZdlPvm(ptr noundef %17, i64 noundef 8) #20
  br label %20

20:                                               ; preds = %19, %15
  store i1 true, ptr %6, align 1
  store i32 1, ptr %7, align 4
  %21 = load i1, ptr %6, align 1
  br i1 %21, label %23, label %22

22:                                               ; preds = %20
  call void @_ZNSt6localeD1Ev(ptr noundef nonnull align 8 dereferenceable(8) %0) #11
  br label %23

23:                                               ; preds = %22, %20
  br label %25

24:                                               ; preds = %2
  call void @_ZN12_GLOBAL__N_114default_localeEv(ptr dead_on_unwind writable sret(%"class.std::locale") align 8 %0)
  store i32 1, ptr %7, align 4
  br label %25

25:                                               ; preds = %24, %23
  call void @llvm.lifetime.end.p0(i64 8, ptr %5) #11
  ret void
}