; Function Attrs: mustprogress uwtable
define void @_ZN5boost10filesystem4path5imbueERKSt6locale(ptr dead_on_unwind noalias writable sret(%"class.std::locale") align 8 %0, ptr noundef nonnull align 8 dereferenceable(8) %1) local_unnamed_addr #1 align 2 {
  %3 = tail call noalias noundef nonnull dereferenceable(8) ptr @_Znwm(i64 noundef 8) #25
  tail call void @_ZNSt6localeC1ERKS_(ptr noundef nonnull align 8 dereferenceable(8) %3, ptr noundef nonnull align 8 dereferenceable(8) %1) #21
  %4 = ptrtoint ptr %3 to i64
  %5 = atomicrmw volatile xchg ptr @_ZN12_GLOBAL__N_113g_path_localeE, i64 %4 acq_rel, align 8
  %.not = icmp eq i64 %5, 0
  br i1 %.not, label %8, label %6, !prof !14

6:                                                ; preds = %2
  %7 = inttoptr i64 %5 to ptr
  tail call void @_ZNSt6localeC1ERKS_(ptr noundef nonnull align 8 dereferenceable(8) %0, ptr noundef nonnull align 8 dereferenceable(8) %7) #21
  tail call void @_ZNSt6localeD1Ev(ptr noundef nonnull align 8 dereferenceable(8) %7) #21
  tail call void @_ZdlPvm(ptr noundef nonnull %7, i64 noundef 8) #24
  br label %9

8:                                                ; preds = %2
  tail call void @_ZNSt6localeC1EPKc(ptr noundef nonnull align 8 dereferenceable(8) %0, ptr noundef nonnull @.str)
  br label %9

9:                                                ; preds = %6, %8
  ret void
}